target datalayout = "e-m:e-p270:32:32-p271:32:32-p272:64:64-i64:64-i128:128-f80:128-n8:16:32:64-S128"
target triple = "x86_64-pc-linux-gnu"

%"class.boost::urls::url_base" = type { ptr, %"class.boost::urls::url_view_base", ptr, i64 }
%"class.boost::urls::url_view_base" = type { [8 x i8], %"struct.boost::urls::detail::url_impl", ptr }
%"struct.boost::urls::detail::url_impl" = type <{ ptr, [8 x i64], [7 x i64], i64, i64, [16 x i8], i16, [2 x i8], i32, i16, i8, [5 x i8] }>

@.str.13 = private unnamed_addr constant [1 x i8] zeroinitializer, align 1

; Function Attrs: noinline noreturn nounwind uwtable
define linkonce_odr hidden void @__clang_call_terminate(ptr noundef %0) #3 comdat {
  %2 = call ptr @__cxa_begin_catch(ptr %0) #17
  call void @_ZSt9terminatev() #18
  unreachable
}

; Function Attrs: mustprogress nounwind uwtable
define linkonce_odr hidden void @_ZN5boost4urls6detail8url_implC2ENS1_10parts_base4fromE(ptr noundef nonnull align 8 dereferenceable(171) %0, i8 noundef signext %1) unnamed_addr #2 comdat align 2 {
  %3 = alloca ptr, align 8
  %4 = alloca i8, align 1
  store ptr %0, ptr %3, align 8, !tbaa !7
  store i8 %1, ptr %4, align 1, !tbaa !33
  %5 = load ptr, ptr %3, align 8
  %6 = getelementptr inbounds nuw %"struct.boost::urls::detail::url_impl", ptr %5, i32 0, i32 0
  store ptr @.str.13, ptr %6, align 8, !tbaa !34
  %7 = getelementptr inbounds nuw %"struct.boost::urls::detail::url_impl", ptr %5, i32 0, i32 1
  %8 = getelementptr inbounds i64, ptr %7, i64 8
  br label %9

9:                                                ; preds = %9, %2
  %10 = phi ptr [ %7, %2 ], [ %11, %9 ]
  store i64 0, ptr %10, align 8, !tbaa !27
  %11 = getelementptr inbounds i64, ptr %10, i64 1
  %12 = icmp eq ptr %11, %8
  br i1 %12, label %13, label %9

13:                                               ; preds = %9
  %14 = getelementptr inbounds nuw %"struct.boost::urls::detail::url_impl", ptr %5, i32 0, i32 2
  %15 = getelementptr inbounds i64, ptr %14, i64 7
  br label %16

16:                                               ; preds = %16, %13
  %17 = phi ptr [ %14, %13 ], [ %18, %16 ]
  store i64 0, ptr %17, align 8, !tbaa !27
  %18 = getelementptr inbounds i64, ptr %17, i64 1
  %19 = icmp eq ptr %18, %15
  br i1 %19, label %20, label %16

20:                                               ; preds = %16
  %21 = getelementptr inbounds nuw %"struct.boost::urls::detail::url_impl", ptr %5, i32 0, i32 3
  store i64 0, ptr %21, align 8, !tbaa !35
  %22 = getelementptr inbounds nuw %"struct.boost::urls::detail::url_impl", ptr %5, i32 0, i32 4
  store i64 0, ptr %22, align 8, !tbaa !36
  %23 = getelementptr inbounds nuw %"struct.boost::urls::detail::url_impl", ptr %5, i32 0, i32 5
  %24 = getelementptr inbounds i8, ptr %23, i64 16
  br label %25

25:                                               ; preds = %25, %20
  %26 = phi ptr [ %23, %20 ], [ %27, %25 ]
  store i8 0, ptr %26, align 1, !tbaa !37
  %27 = getelementptr inbounds i8, ptr %26, i64 1
  %28 = icmp eq ptr %27, %24
  br i1 %28, label %29, label %25

29:                                               ; preds = %25
  %30 = getelementptr inbounds nuw %"struct.boost::urls::detail::url_impl", ptr %5, i32 0, i32 6
  store i16 0, ptr %30, align 8, !tbaa !38
  %31 = getelementptr inbounds nuw %"struct.boost::urls::detail::url_impl", ptr %5, i32 0, i32 8
  store i32 0, ptr %31, align 4, !tbaa !39
  %32 = getelementptr inbounds nuw %"struct.boost::urls::detail::url_impl", ptr %5, i32 0, i32 9
  store i16 0, ptr %32, align 8, !tbaa !40
  %33 = getelementptr inbounds nuw %"struct.boost::urls::detail::url_impl", ptr %5, i32 0, i32 10
  %34 = load i8, ptr %4, align 1, !tbaa !33
  store i8 %34, ptr %33, align 2, !tbaa !41
  ret void
}

; Function Attrs: mustprogress nounwind uwtable
define void @_ZN5boost4urls3url10deallocateEPc(ptr noundef nonnull align 8 dereferenceable(216) %0, ptr noundef %1) #2 align 2 {
  %3 = alloca ptr, align 8
  %4 = alloca ptr, align 8
  store ptr %0, ptr %3, align 8, !tbaa !7
  store ptr %1, ptr %4, align 8, !tbaa !7
  %5 = load ptr, ptr %4, align 8, !tbaa !7
  %6 = icmp eq ptr %5, null
  br i1 %6, label %8, label %7

7:                                                ; preds = %2
  call void @_ZdaPv(ptr noundef %5) #20
  br label %8

8:                                                ; preds = %7, %2
  ret void
}

; Function Attrs: mustprogress nounwind uwtable
define noundef nonnull align 8 dereferenceable(216) ptr @_ZN5boost4urls3urlaSEOS1_(ptr noundef nonnull align 8 dereferenceable(216) %0, ptr noundef nonnull align 8 dereferenceable(216) %1) #2 align 2 personality ptr @__gxx_personality_v0 {
  %3 = alloca ptr, align 8
  %4 = alloca ptr, align 8
  %5 = alloca %"struct.boost::urls::detail::url_impl", align 8
  store ptr %0, ptr %3, align 8, !tbaa !7
  store ptr %1, ptr %4, align 8, !tbaa !7
  %6 = load ptr, ptr %3, align 8
  %7 = getelementptr inbounds nuw %"class.boost::urls::url_base", ptr %6, i32 0, i32 2
  %8 = load ptr, ptr %7, align 8, !tbaa !16
  %9 = icmp ne ptr %8, null
  br i1 %9, label %10, label %14

10:                                               ; preds = %2
  %11 = getelementptr inbounds nuw %"class.boost::urls::url_base", ptr %6, i32 0, i32 2
  %12 = load ptr, ptr %11, align 8, !tbaa !16
  invoke void @_ZN5boost4urls3url10deallocateEPc(ptr noundef nonnull align 8 dereferenceable(216) %6, ptr noundef %12)
          to label %13 unwind label %35

13:                                               ; preds = %10
  br label %14

14:                                               ; preds = %13, %2
  %15 = load ptr, ptr %4, align 8, !tbaa !7
  %16 = getelementptr inbounds i8, ptr %15, i64 8
  %17 = getelementptr inbounds nuw %"class.boost::urls::url_view_base", ptr %16, i32 0, i32 1
  %18 = getelementptr inbounds i8, ptr %6, i64 8
  %19 = getelementptr inbounds nuw %"class.boost::urls::url_view_base", ptr %18, i32 0, i32 1
  call void @llvm.memcpy.p0.p0.i64(ptr align 8 %19, ptr align 8 %17, i64 171, i1 false)
  %20 = load ptr, ptr %4, align 8, !tbaa !7
  %21 = getelementptr inbounds nuw %"class.boost::urls::url_base", ptr %20, i32 0, i32 2
  %22 = load ptr, ptr %21, align 8, !tbaa !16
  %23 = getelementptr inbounds nuw %"class.boost::urls::url_base", ptr %6, i32 0, i32 2
  store ptr %22, ptr %23, align 8, !tbaa !16
  %24 = load ptr, ptr %4, align 8, !tbaa !7
  %25 = getelementptr inbounds nuw %"class.boost::urls::url_base", ptr %24, i32 0, i32 3
  %26 = load i64, ptr %25, align 8, !tbaa !25
  %27 = getelementptr inbounds nuw %"class.boost::urls::url_base", ptr %6, i32 0, i32 3
  store i64 %26, ptr %27, align 8, !tbaa !25
  %28 = load ptr, ptr %4, align 8, !tbaa !7
  %29 = getelementptr inbounds nuw %"class.boost::urls::url_base", ptr %28, i32 0, i32 2
  store ptr null, ptr %29, align 8, !tbaa !16
  %30 = load ptr, ptr %4, align 8, !tbaa !7
  %31 = getelementptr inbounds nuw %"class.boost::urls::url_base", ptr %30, i32 0, i32 3
  store i64 0, ptr %31, align 8, !tbaa !25
  call void @llvm.lifetime.start.p0(i64 176, ptr %5) #17
  call void @_ZN5boost4urls6detail8url_implC2ENS1_10parts_base4fromE(ptr noundef nonnull align 8 dereferenceable(171) %5, i8 noundef signext 1) #17
  %32 = load ptr, ptr %4, align 8, !tbaa !7
  %33 = getelementptr inbounds i8, ptr %32, i64 8
  %34 = getelementptr inbounds nuw %"class.boost::urls::url_view_base", ptr %33, i32 0, i32 1
  call void @llvm.memcpy.p0.p0.i64(ptr align 8 %34, ptr align 8 %5, i64 171, i1 false)
  call void @llvm.lifetime.end.p0(i64 176, ptr %5) #17
  ret ptr %6

35:                                               ; preds = %10
  %36 = landingpad { ptr, i32 }
          catch ptr null
  %37 = extractvalue { ptr, i32 } %36, 0
  call void @__clang_call_terminate(ptr %37) #18
  unreachable
}