; Function Attrs: mustprogress nounwind uwtable
define noundef nonnull align 8 dereferenceable(216) ptr @_ZN5boost4urls3urlaSEOS1_(ptr noundef nonnull returned align 8 dereferenceable(216) %0, ptr nocapture noundef nonnull align 8 dereferenceable(216) %1) local_unnamed_addr #1 align 2 personality ptr @__gxx_personality_v0 {
  %3 = getelementptr inbounds nuw i8, ptr %0, i64 200
  %4 = load ptr, ptr %3, align 8, !tbaa !6
  %.not = icmp eq ptr %4, null
  br i1 %.not, label %5, label %_ZN5boost4urls3url10deallocateEPc.exit

_ZN5boost4urls3url10deallocateEPc.exit:           ; preds = %2
  tail call void @_ZdaPv(ptr noundef nonnull %4) #21
  br label %5

5:                                                ; preds = %_ZN5boost4urls3url10deallocateEPc.exit, %2
  %6 = getelementptr inbounds i8, ptr %1, i64 16
  %7 = getelementptr inbounds i8, ptr %0, i64 16
  tail call void @llvm.memcpy.p0.p0.i64(ptr noundef nonnull align 8 dereferenceable(171) %7, ptr noundef nonnull align 8 dereferenceable(171) %6, i64 171, i1 false)
  %8 = getelementptr inbounds nuw i8, ptr %1, i64 200
  %9 = load ptr, ptr %8, align 8, !tbaa !6
  store ptr %9, ptr %3, align 8, !tbaa !6
  %10 = getelementptr inbounds nuw i8, ptr %1, i64 208
  %11 = load i64, ptr %10, align 8, !tbaa !28
  %12 = getelementptr inbounds nuw i8, ptr %0, i64 208
  store i64 %11, ptr %12, align 8, !tbaa !28
  tail call void @llvm.memset.p0.i64(ptr noundef nonnull align 8 dereferenceable(16) %8, i8 0, i64 16, i1 false)
  store ptr @.str.13, ptr %6, align 8
  %.sroa.4.0..sroa_idx = getelementptr inbounds i8, ptr %1, i64 24
  tail call void @llvm.memset.p0.i64(ptr noundef nonnull align 8 dereferenceable(154) %.sroa.4.0..sroa_idx, i8 0, i64 154, i1 false)
  %.sroa.57.0..sroa_idx = getelementptr inbounds i8, ptr %1, i64 180
  store i32 0, ptr %.sroa.57.0..sroa_idx, align 4
  %.sroa.6.0..sroa_idx = getelementptr inbounds i8, ptr %1, i64 184
  store i16 0, ptr %.sroa.6.0..sroa_idx, align 8
  %.sroa.7.0..sroa_idx = getelementptr inbounds i8, ptr %1, i64 186
  store i8 1, ptr %.sroa.7.0..sroa_idx, align 2
  ret ptr %0
}